target datalayout = "e-m:e-p270:32:32-p271:32:32-p272:64:64-i64:64-i128:128-f80:128-n8:16:32:64-S128"
target triple = "x86_64-pc-linux-gnu"

; Function Attrs: nounwind uwtable
define dso_local i32 @_hash_get_totalbuckets(i32 noundef %0) #0 {
  %2 = alloca i32, align 4
  %3 = alloca i32, align 4
  %4 = alloca i32, align 4
  %5 = alloca i32, align 4
  %6 = alloca i32, align 4
  %7 = alloca i32, align 4
  store i32 %0, ptr %3, align 4
  call void @llvm.lifetime.start.p0(i64 4, ptr %4) #6
  call void @llvm.lifetime.start.p0(i64 4, ptr %5) #6
  call void @llvm.lifetime.start.p0(i64 4, ptr %6) #6
  %8 = load i32, ptr %3, align 4
  %9 = icmp ult i32 %8, 10
  br i1 %9, label %10, label %13

10:                                               ; preds = %1
  %11 = load i32, ptr %3, align 4
  %12 = shl i32 1, %11
  store i32 %12, ptr %2, align 4
  store i32 1, ptr %7, align 4
  br label %35

13:                                               ; preds = %1
  store i32 10, ptr %4, align 4
  %14 = load i32, ptr %3, align 4
  %15 = sub i32 %14, 10
  %16 = lshr i32 %15, 2
  %17 = load i32, ptr %4, align 4
  %18 = add i32 %17, %16
  store i32 %18, ptr %4, align 4
  %19 = load i32, ptr %4, align 4
  %20 = sub i32 %19, 1
  %21 = shl i32 1, %20
  store i32 %21, ptr %5, align 4
  %22 = load i32, ptr %3, align 4
  %23 = sub i32 %22, 10
  %24 = and i32 %23, 3
  %25 = add i32 %24, 1
  store i32 %25, ptr %6, align 4
  %26 = load i32, ptr %4, align 4
  %27 = sub i32 %26, 1
  %28 = shl i32 1, %27
  %29 = ashr i32 %28, 2
  %30 = load i32, ptr %6, align 4
  %31 = mul i32 %29, %30
  %32 = load i32, ptr %5, align 4
  %33 = add i32 %32, %31
  store i32 %33, ptr %5, align 4
  %34 = load i32, ptr %5, align 4
  store i32 %34, ptr %2, align 4
  store i32 1, ptr %7, align 4
  br label %35

35:                                               ; preds = %13, %10
  call void @llvm.lifetime.end.p0(i64 4, ptr %6) #6
  call void @llvm.lifetime.end.p0(i64 4, ptr %5) #6
  call void @llvm.lifetime.end.p0(i64 4, ptr %4) #6
  %36 = load i32, ptr %2, align 4
  ret i32 %36
}