; Function Attrs: mustprogress nofree norecurse nosync nounwind willreturn memory(none) uwtable
define dso_local i32 @_hash_get_totalbuckets(i32 noundef %0) local_unnamed_addr #0 {
  %2 = icmp ult i32 %0, 10
  br i1 %2, label %3, label %5

3:                                                ; preds = %1
  %4 = shl nuw nsw i32 1, %0
  br label %14

5:                                                ; preds = %1
  %6 = add i32 %0, -10
  %7 = lshr i32 %6, 2
  %8 = shl nuw i32 512, %7
  %9 = and i32 %6, 3
  %10 = add nuw nsw i32 %9, 1
  %11 = ashr exact i32 %8, 2
  %12 = mul nsw i32 %11, %10
  %13 = add i32 %12, %8
  br label %14

14:                                               ; preds = %5, %3
  %.0 = phi i32 [ %4, %3 ], [ %13, %5 ]
  ret i32 %.0
}